target datalayout = "e-m:e-p270:32:32-p271:32:32-p272:64:64-i64:64-i128:128-f80:128-n8:16:32:64-S128"
target triple = "x86_64-pc-linux-gnu"

@proto_register_fcfzs.ett = internal global [3 x ptr] [ptr @ett_fcfzs, ptr @ett_fcfzs_gzc_flags, ptr @ett_fcfzs_zone_state], align 16
@.str.58 = private unnamed_addr constant [33 x i8] c"Fibre Channel Fabric Zone Server\00", align 1
@.str.59 = private unnamed_addr constant [7 x i8] c"FC FZS\00", align 1
@.str.60 = private unnamed_addr constant [6 x i8] c"fcfzs\00", align 1
@proto_fcfzs = internal global i32 0, align 4
@fcfzs_req_hash = internal global ptr null, align 8
@fzs_handle = internal global ptr null, align 8

; Function Attrs: null_pointer_is_valid sspstrong uwtable
define hidden void @proto_register_fcfzs() #0 {
  %1 = alloca ptr, align 8
  call void @llvm.lifetime.start.p0(i64 8, ptr %1) #5
  %2 = call i32 @proto_register_protocol(ptr noundef @.str.58, ptr noundef @.str.59, ptr noundef @.str.60)
  store i32 %2, ptr @proto_fcfzs, align 4
  %3 = load i32, ptr @proto_fcfzs, align 4
  call void @proto_register_field_array(i32 noundef %3, ptr noundef @proto_register_fcfzs.hf, i32 noundef 28)
  call void @proto_register_subtree_array(ptr noundef @proto_register_fcfzs.ett, i32 noundef 3)
  %4 = load i32, ptr @proto_fcfzs, align 4
  %5 = call ptr @expert_register_protocol(i32 noundef %4)
  store ptr %5, ptr %1, align 8
  %6 = load ptr, ptr %1, align 8
  call void @expert_register_field_array(ptr noundef %6, ptr noundef @proto_register_fcfzs.ei, i32 noundef 2)
  %7 = call ptr @wmem_epan_scope()
  %8 = call ptr @wmem_file_scope()
  %9 = call noalias ptr @wmem_map_new_autoreset(ptr noundef %7, ptr noundef %8, ptr noundef @fcfzs_hash, ptr noundef @fcfzs_equal)
  store ptr %9, ptr @fcfzs_req_hash, align 8
  %10 = load i32, ptr @proto_fcfzs, align 4
  %11 = call ptr @register_dissector(ptr noundef @.str.60, ptr noundef @dissect_fcfzs, i32 noundef %10)
  store ptr %11, ptr @fzs_handle, align 8
  call void @llvm.lifetime.end.p0(i64 8, ptr %1) #5
  ret void
}