; Function Attrs: null_pointer_is_valid sspstrong uwtable
define hidden void @proto_register_fcfzs() local_unnamed_addr #0 {
  %1 = tail call i32 @proto_register_protocol(ptr noundef nonnull @.str.58, ptr noundef nonnull @.str.59, ptr noundef nonnull @.str.60)
  store i32 %1, ptr @proto_fcfzs, align 4
  tail call void @proto_register_field_array(i32 noundef %1, ptr noundef nonnull @proto_register_fcfzs.hf, i32 noundef 28)
  tail call void @proto_register_subtree_array(ptr noundef nonnull @proto_register_fcfzs.ett, i32 noundef 3)
  %2 = load i32, ptr @proto_fcfzs, align 4
  %3 = tail call ptr @expert_register_protocol(i32 noundef %2)
  tail call void @expert_register_field_array(ptr noundef %3, ptr noundef nonnull @proto_register_fcfzs.ei, i32 noundef 2)
  %4 = tail call ptr @wmem_epan_scope()
  %5 = tail call ptr @wmem_file_scope()
  %6 = tail call noalias ptr @wmem_map_new_autoreset(ptr noundef %4, ptr noundef %5, ptr noundef nonnull @fcfzs_hash, ptr noundef nonnull @fcfzs_equal)
  store ptr %6, ptr @fcfzs_req_hash, align 8
  %7 = load i32, ptr @proto_fcfzs, align 4
  %8 = tail call ptr @register_dissector(ptr noundef nonnull @.str.60, ptr noundef nonnull @dissect_fcfzs, i32 noundef %7)
  store ptr %8, ptr @fzs_handle, align 8
  ret void
}